target datalayout = "e-m:e-p270:32:32-p271:32:32-p272:64:64-i64:64-i128:128-f80:128-n8:16:32:64-S128"
target triple = "x86_64-pc-linux-gnu"

@.str.6 = private unnamed_addr constant [14 x i8] c"out of memory\00", align 1
@.str.7 = private unnamed_addr constant [7 x i8] c"path.c\00", align 1
@__func__.make_absolute_path = private unnamed_addr constant [19 x i8] c"make_absolute_path\00", align 1
@.str.8 = private unnamed_addr constant [44 x i8] c"could not get current working directory: %m\00", align 1
@.str.9 = private unnamed_addr constant [6 x i8] c"%s/%s\00", align 1

; Function Attrs: nounwind uwtable
define dso_local void @canonicalize_path(ptr noundef %0) #0 {
  %2 = alloca ptr, align 8
  store ptr %0, ptr %2, align 8
  %3 = load ptr, ptr %2, align 8
  call void @canonicalize_path_enc(ptr noundef %3, i32 noundef 0)
  ret void
}

; Function Attrs: nounwind uwtable
define dso_local ptr @make_absolute_path(ptr noundef %0) #0 {
  %2 = alloca ptr, align 8
  %3 = alloca ptr, align 8
  %4 = alloca ptr, align 8
  %5 = alloca i32, align 4
  %6 = alloca ptr, align 8
  %7 = alloca i64, align 8
  %8 = alloca i32, align 4
  store ptr %0, ptr %3, align 8
  call void @llvm.lifetime.start.p0(i64 8, ptr %4) #10
  %9 = load ptr, ptr %3, align 8
  %10 = icmp eq ptr %9, null
  br i1 %10, label %11, label %12

11:                                               ; preds = %1
  store ptr null, ptr %2, align 8
  store i32 1, ptr %5, align 4
  br label %118

12:                                               ; preds = %1
  %13 = load ptr, ptr %3, align 8
  %14 = getelementptr inbounds i8, ptr %13, i64 0
  %15 = load i8, ptr %14, align 1
  %16 = sext i8 %15 to i32
  %17 = icmp eq i32 %16, 47
  br i1 %17, label %97, label %18

18:                                               ; preds = %12
  call void @llvm.lifetime.start.p0(i64 8, ptr %6) #10
  call void @llvm.lifetime.start.p0(i64 8, ptr %7) #10
  store i64 1024, ptr %7, align 8
  br label %19

19:                                               ; preds = %67, %46, %18
  %20 = load i64, ptr %7, align 8
  %21 = call noalias ptr @malloc(i64 noundef %20) #13
  store ptr %21, ptr %6, align 8
  %22 = load ptr, ptr %6, align 8
  %23 = icmp ne ptr %22, null
  br i1 %23, label %36, label %24

24:                                               ; preds = %19
  br label %25

25:                                               ; preds = %24
  br i1 true, label %26, label %28

26:                                               ; preds = %25
  %27 = call zeroext i1 @errstart_cold(i32 noundef 21, ptr noundef null) #14
  br i1 %27, label %30, label %33

28:                                               ; preds = %25
  %29 = call zeroext i1 @errstart(i32 noundef 21, ptr noundef null)
  br i1 %29, label %30, label %33

30:                                               ; preds = %28, %26
  %31 = call i32 @errcode(i32 noundef 8389)
  %32 = call i32 (ptr, ...) @errmsg(ptr noundef @.str.6)
  call void @errfinish(ptr noundef @.str.7, i32 noundef 829, ptr noundef @__func__.make_absolute_path)
  br label %33

33:                                               ; preds = %30, %28, %26
  unreachable

34:                                               ; No predecessors!
  br label %35

35:                                               ; preds = %34
  br label %36

36:                                               ; preds = %35, %19
  %37 = load ptr, ptr %6, align 8
  %38 = load i64, ptr %7, align 8
  %39 = call ptr @getcwd(ptr noundef %37, i64 noundef %38) #10
  %40 = icmp ne ptr %39, null
  br i1 %40, label %41, label %42

41:                                               ; preds = %36
  br label %68

42:                                               ; preds = %36
  %43 = call ptr @__errno_location() #15
  %44 = load i32, ptr %43, align 4
  %45 = icmp eq i32 %44, 34
  br i1 %45, label %46, label %50

46:                                               ; preds = %42
  %47 = load ptr, ptr %6, align 8
  call void @free(ptr noundef %47) #10
  %48 = load i64, ptr %7, align 8
  %49 = mul i64 %48, 2
  store i64 %49, ptr %7, align 8
  br label %19

50:                                               ; preds = %42
  call void @llvm.lifetime.start.p0(i64 4, ptr %8) #10
  %51 = call ptr @__errno_location() #15
  %52 = load i32, ptr %51, align 4
  store i32 %52, ptr %8, align 4
  %53 = load ptr, ptr %6, align 8
  call void @free(ptr noundef %53) #10
  %54 = load i32, ptr %8, align 4
  %55 = call ptr @__errno_location() #15
  store i32 %54, ptr %55, align 4
  br label %56

56:                                               ; preds = %50
  br i1 true, label %57, label %59

57:                                               ; preds = %56
  %58 = call zeroext i1 @errstart_cold(i32 noundef 21, ptr noundef null) #14
  br i1 %58, label %61, label %63

59:                                               ; preds = %56
  %60 = call zeroext i1 @errstart(i32 noundef 21, ptr noundef null)
  br i1 %60, label %61, label %63

61:                                               ; preds = %59, %57
  %62 = call i32 (ptr, ...) @errmsg_internal(ptr noundef @.str.8)
  call void @errfinish(ptr noundef @.str.7, i32 noundef 851, ptr noundef @__func__.make_absolute_path)
  br label %63

63:                                               ; preds = %61, %59, %57
  unreachable

64:                                               ; No predecessors!
  br label %65

65:                                               ; preds = %64
  call void @llvm.lifetime.end.p0(i64 4, ptr %8) #10
  br label %66

66:                                               ; preds = %65
  br label %67

67:                                               ; preds = %66
  br label %19

68:                                               ; preds = %41
  %69 = load ptr, ptr %6, align 8
  %70 = call i64 @strlen(ptr noundef %69) #11
  %71 = load ptr, ptr %3, align 8
  %72 = call i64 @strlen(ptr noundef %71) #11
  %73 = add i64 %70, %72
  %74 = add i64 %73, 2
  %75 = call noalias ptr @malloc(i64 noundef %74) #13
  store ptr %75, ptr %4, align 8
  %76 = load ptr, ptr %4, align 8
  %77 = icmp ne ptr %76, null
  br i1 %77, label %91, label %78

78:                                               ; preds = %68
  %79 = load ptr, ptr %6, align 8
  call void @free(ptr noundef %79) #10
  br label %80

80:                                               ; preds = %78
  br i1 true, label %81, label %83

81:                                               ; preds = %80
  %82 = call zeroext i1 @errstart_cold(i32 noundef 21, ptr noundef null) #14
  br i1 %82, label %85, label %88

83:                                               ; preds = %80
  %84 = call zeroext i1 @errstart(i32 noundef 21, ptr noundef null)
  br i1 %84, label %85, label %88

85:                                               ; preds = %83, %81
  %86 = call i32 @errcode(i32 noundef 8389)
  %87 = call i32 (ptr, ...) @errmsg(ptr noundef @.str.6)
  call void @errfinish(ptr noundef @.str.7, i32 noundef 866, ptr noundef @__func__.make_absolute_path)
  br label %88

88:                                               ; preds = %85, %83, %81
  unreachable

89:                                               ; No predecessors!
  br label %90

90:                                               ; preds = %89
  br label %91

91:                                               ; preds = %90, %68
  %92 = load ptr, ptr %4, align 8
  %93 = load ptr, ptr %6, align 8
  %94 = load ptr, ptr %3, align 8
  %95 = call i32 (ptr, ptr, ...) @pg_sprintf(ptr noundef %92, ptr noundef @.str.9, ptr noundef %93, ptr noundef %94)
  %96 = load ptr, ptr %6, align 8
  call void @free(ptr noundef %96) #10
  call void @llvm.lifetime.end.p0(i64 8, ptr %7) #10
  call void @llvm.lifetime.end.p0(i64 8, ptr %6) #10
  br label %115

97:                                               ; preds = %12
  %98 = load ptr, ptr %3, align 8
  %99 = call noalias ptr @strdup(ptr noundef %98) #10
  store ptr %99, ptr %4, align 8
  %100 = load ptr, ptr %4, align 8
  %101 = icmp ne ptr %100, null
  br i1 %101, label %114, label %102

102:                                              ; preds = %97
  br label %103

103:                                              ; preds = %102
  br i1 true, label %104, label %106

104:                                              ; preds = %103
  %105 = call zeroext i1 @errstart_cold(i32 noundef 21, ptr noundef null) #14
  br i1 %105, label %108, label %111

106:                                              ; preds = %103
  %107 = call zeroext i1 @errstart(i32 noundef 21, ptr noundef null)
  br i1 %107, label %108, label %111

108:                                              ; preds = %106, %104
  %109 = call i32 @errcode(i32 noundef 8389)
  %110 = call i32 (ptr, ...) @errmsg(ptr noundef @.str.6)
  call void @errfinish(ptr noundef @.str.7, i32 noundef 883, ptr noundef @__func__.make_absolute_path)
  br label %111

111:                                              ; preds = %108, %106, %104
  unreachable

112:                                              ; No predecessors!
  br label %113

113:                                              ; preds = %112
  br label %114

114:                                              ; preds = %113, %97
  br label %115

115:                                              ; preds = %114, %91
  %116 = load ptr, ptr %4, align 8
  call void @canonicalize_path(ptr noundef %116)
  %117 = load ptr, ptr %4, align 8
  store ptr %117, ptr %2, align 8
  store i32 1, ptr %5, align 4
  br label %118

118:                                              ; preds = %115, %11
  call void @llvm.lifetime.end.p0(i64 8, ptr %4) #10
  %119 = load ptr, ptr %2, align 8
  ret ptr %119
}