; Function Attrs: nounwind uwtable
define dso_local noundef ptr @make_absolute_path(ptr noundef %0) local_unnamed_addr #3 {
  %2 = icmp eq ptr %0, null
  br i1 %2, label %41, label %3

3:                                                ; preds = %1
  %4 = load i8, ptr %0, align 1
  %5 = icmp eq i8 %4, 47
  br i1 %5, label %34, label %.preheader

.preheader:                                       ; preds = %3
  %6 = tail call noalias dereferenceable_or_null(1024) ptr @malloc(i64 noundef 1024) #24
  %.not36 = icmp eq ptr %6, null
  br i1 %.not36, label %._crit_edge, label %.lr.ph

._crit_edge:                                      ; preds = %16, %.preheader
  %7 = tail call zeroext i1 @errstart_cold(i32 noundef 21, ptr noundef null) #25
  tail call void @llvm.assume(i1 %7)
  %8 = tail call i32 @errcode(i32 noundef 8389) #21
  %9 = tail call i32 (ptr, ...) @errmsg(ptr noundef nonnull @.str.6) #21
  tail call void @errfinish(ptr noundef nonnull @.str.7, i32 noundef 829, ptr noundef nonnull @__func__.make_absolute_path) #21
  unreachable

.lr.ph:                                           ; preds = %.preheader, %16
  %10 = phi ptr [ %18, %16 ], [ %6, %.preheader ]
  %.02237 = phi i64 [ %17, %16 ], [ 1024, %.preheader ]
  %11 = tail call ptr @getcwd(ptr noundef nonnull %10, i64 noundef %.02237) #21
  %.not29 = icmp eq ptr %11, null
  br i1 %.not29, label %12, label %22

12:                                               ; preds = %.lr.ph
  %13 = tail call ptr @__errno_location() #26
  %14 = load i32, ptr %13, align 4
  %15 = icmp eq i32 %14, 34
  tail call void @free(ptr noundef nonnull %10) #21
  br i1 %15, label %16, label %19

16:                                               ; preds = %12
  %17 = shl i64 %.02237, 1
  %18 = tail call noalias ptr @malloc(i64 noundef %17) #24
  %.not = icmp eq ptr %18, null
  br i1 %.not, label %._crit_edge, label %.lr.ph

19:                                               ; preds = %12
  store i32 %14, ptr %13, align 4
  %20 = tail call zeroext i1 @errstart_cold(i32 noundef 21, ptr noundef null) #25
  tail call void @llvm.assume(i1 %20)
  %21 = tail call i32 (ptr, ...) @errmsg_internal(ptr noundef nonnull @.str.8) #21
  tail call void @errfinish(ptr noundef nonnull @.str.7, i32 noundef 851, ptr noundef nonnull @__func__.make_absolute_path) #21
  unreachable

22:                                               ; preds = %.lr.ph
  %23 = tail call i64 @strlen(ptr noundef nonnull dereferenceable(1) %10) #22
  %24 = tail call i64 @strlen(ptr noundef nonnull dereferenceable(1) %0) #22
  %25 = add i64 %23, 2
  %26 = add i64 %25, %24
  %27 = tail call noalias ptr @malloc(i64 noundef %26) #24
  %.not30 = icmp eq ptr %27, null
  br i1 %.not30, label %28, label %32

28:                                               ; preds = %22
  tail call void @free(ptr noundef nonnull %10) #21
  %29 = tail call zeroext i1 @errstart_cold(i32 noundef 21, ptr noundef null) #25
  tail call void @llvm.assume(i1 %29)
  %30 = tail call i32 @errcode(i32 noundef 8389) #21
  %31 = tail call i32 (ptr, ...) @errmsg(ptr noundef nonnull @.str.6) #21
  tail call void @errfinish(ptr noundef nonnull @.str.7, i32 noundef 866, ptr noundef nonnull @__func__.make_absolute_path) #21
  unreachable

32:                                               ; preds = %22
  %33 = tail call i32 (ptr, ptr, ...) @pg_sprintf(ptr noundef nonnull %27, ptr noundef nonnull @.str.9, ptr noundef nonnull %10, ptr noundef nonnull %0) #21
  tail call void @free(ptr noundef nonnull %10) #21
  br label %40

34:                                               ; preds = %3
  %35 = tail call noalias ptr @strdup(ptr noundef nonnull %0) #21
  %.not31 = icmp eq ptr %35, null
  br i1 %.not31, label %36, label %40

36:                                               ; preds = %34
  %37 = tail call zeroext i1 @errstart_cold(i32 noundef 21, ptr noundef null) #25
  tail call void @llvm.assume(i1 %37)
  %38 = tail call i32 @errcode(i32 noundef 8389) #21
  %39 = tail call i32 (ptr, ...) @errmsg(ptr noundef nonnull @.str.6) #21
  tail call void @errfinish(ptr noundef nonnull @.str.7, i32 noundef 883, ptr noundef nonnull @__func__.make_absolute_path) #21
  unreachable

40:                                               ; preds = %34, %32
  %.023 = phi ptr [ %35, %34 ], [ %27, %32 ]
  tail call void @canonicalize_path_enc(ptr noundef nonnull %.023, i32 poison)
  br label %41

41:                                               ; preds = %1, %40
  %.0 = phi ptr [ %.023, %40 ], [ null, %1 ]
  ret ptr %.0
}